; Function Attrs: mustprogress uwtable
define void @_ZNK6icu_7513OlsonTimeZone20checkTransitionRulesER10UErrorCode(ptr noundef nonnull align 8 dereferenceable(224) %this, ptr nocapture noundef nonnull align 4 dereferenceable(4) %status) local_unnamed_addr #2 align 2 {
entry:
  %transitionRulesInitOnce = getelementptr inbounds i8, ptr %this, i64 216
  %0 = load i32, ptr %status, align 4
  %cmp.i.i = icmp slt i32 %0, 1
  br i1 %cmp.i.i, label %if.end.i, label %_ZN6icu_7513umtx_initOnceIPNS_13OlsonTimeZoneEEEvRNS_9UInitOnceEPFvT_R10UErrorCodeES5_S7_.exit

if.end.i:                                         ; preds = %entry
  %1 = load atomic i32, ptr %transitionRulesInitOnce acquire, align 8
  %cmp.not.i = icmp eq i32 %1, 2
  br i1 %cmp.not.i, label %if.else.i, label %land.lhs.true.i

land.lhs.true.i:                                  ; preds = %if.end.i
  %call2.i = tail call noundef signext i8 @_ZN6icu_7520umtx_initImplPreInitERNS_9UInitOnceE(ptr noundef nonnull align 4 dereferenceable(8) %transitionRulesInitOnce)
  %tobool3.not.i = icmp eq i8 %call2.i, 0
  br i1 %tobool3.not.i, label %if.else.i, label %if.then4.i

if.then4.i:                                       ; preds = %land.lhs.true.i
  tail call void @_ZN6icu_7513OlsonTimeZone19initTransitionRulesER10UErrorCode(ptr noundef nonnull align 8 dereferenceable(224) %this, ptr noundef nonnull align 4 dereferenceable(4) %status)
  %2 = load i32, ptr %status, align 4
  %fErrCode.i = getelementptr inbounds i8, ptr %this, i64 220
  store i32 %2, ptr %fErrCode.i, align 4
  tail call void @_ZN6icu_7521umtx_initImplPostInitERNS_9UInitOnceE(ptr noundef nonnull align 4 dereferenceable(8) %transitionRulesInitOnce)
  br label %_ZN6icu_7513umtx_initOnceIPNS_13OlsonTimeZoneEEEvRNS_9UInitOnceEPFvT_R10UErrorCodeES5_S7_.exit

if.else.i:                                        ; preds = %land.lhs.true.i, %if.end.i
  %fErrCode5.i = getelementptr inbounds i8, ptr %this, i64 220
  %3 = load i32, ptr %fErrCode5.i, align 4
  %cmp.i9.i = icmp slt i32 %3, 1
  br i1 %cmp.i9.i, label %_ZN6icu_7513umtx_initOnceIPNS_13OlsonTimeZoneEEEvRNS_9UInitOnceEPFvT_R10UErrorCodeES5_S7_.exit, label %if.then8.i

if.then8.i:                                       ; preds = %if.else.i
  store i32 %3, ptr %status, align 4
  br label %_ZN6icu_7513umtx_initOnceIPNS_13OlsonTimeZoneEEEvRNS_9UInitOnceEPFvT_R10UErrorCodeES5_S7_.exit

_ZN6icu_7513umtx_initOnceIPNS_13OlsonTimeZoneEEEvRNS_9UInitOnceEPFvT_R10UErrorCodeES5_S7_.exit: ; preds = %entry, %if.then4.i, %if.else.i, %if.then8.i
  ret void
}